target datalayout = "e-m:e-p270:32:32-p271:32:32-p272:64:64-i64:64-i128:128-f80:128-n8:16:32:64-S128"
target triple = "x86_64-unknown-linux-gnu"

%struct.QTailQLink = type { ptr, ptr }
%struct.BlockDriverState = type { i32, i8, i8, i8, i8, i8, ptr, ptr, ptr, %struct.anon.0, i8, [4096 x i8], [4096 x i8], [4096 x i8], [16 x i8], ptr, [4096 x i8], %struct.BlockLimits, i32, i32, i32, i32, [32 x i8], %union.anon, %union.anon.1, %union.anon.2, i32, [16 x %struct.anon.3], ptr, %struct.anon.4, ptr, ptr, %struct.anon.5, ptr, ptr, i32, ptr, i64, i64, %struct.QemuMutex, %struct.anon.6, %struct.Stat64, i32, i32, i32, i32, i32, i32, %struct.QemuMutex, %struct.anon.7, %struct.CoQueue, i8, i32, i8, %struct.CoMutex, ptr, ptr }
%struct.anon.0 = type { ptr }
%struct.BlockLimits = type { i32, i64, i32, i64, i32, i32, i32, i64, i32, i64, i64, i32, i8, i32, i32, i32, i32, i32, i32, i32 }
%union.anon = type { %struct.QTailQLink }
%union.anon.1 = type { %struct.QTailQLink }
%union.anon.2 = type { %struct.QTailQLink }
%struct.anon.3 = type { ptr }
%struct.anon.4 = type { ptr }
%struct.anon.5 = type { ptr }
%struct.anon.6 = type { ptr }
%struct.Stat64 = type { i64 }
%struct.QemuMutex = type { %union.pthread_mutex_t, i8 }
%union.pthread_mutex_t = type { %struct.__pthread_mutex_s }
%struct.__pthread_mutex_s = type { i32, i32, i32, i32, i32, i16, i16, %struct.__pthread_internal_list }
%struct.__pthread_internal_list = type { ptr, ptr }
%struct.anon.7 = type { ptr }
%struct.CoQueue = type { %struct.anon.8 }
%struct.anon.8 = type { ptr, ptr }
%struct.CoMutex = type { i32, ptr, %struct.anon.9, %struct.anon.9, i32, i32, ptr }
%struct.anon.9 = type { ptr }
%struct.BDRVQuorumState = type { ptr, i32, i32, i32, i8, i8, i32 }
%struct.BdrvChild = type { ptr, ptr, ptr, i32, ptr, i64, i64, i8, i8, %struct.anon.10, %struct.anon.11 }
%struct.anon.10 = type { ptr, ptr }
%struct.anon.11 = type { ptr, ptr }
%struct.QuorumAIOCB = type { ptr, ptr, i64, i64, i32, ptr, ptr, i32, i32, i32, %struct.QuorumVotes, i8, i32, i32 }
%struct.QuorumVotes = type { %struct.anon.15, ptr }
%struct.anon.15 = type { ptr }
%struct.QuorumCo = type { ptr, i32 }
%struct.QuorumChildRequest = type { ptr, %struct.QEMUIOVector, ptr, i32, ptr }
%struct.QEMUIOVector = type { ptr, i32, %union.anon.16 }
%union.anon.16 = type { %struct.anon.17 }
%struct.anon.17 = type { i32, %struct.iovec }
%struct.iovec = type { ptr, i64 }

@.str.6 = private unnamed_addr constant [23 x i8] c"../qemu/block/quorum.c\00", align 1
@.str.32 = private unnamed_addr constant [30 x i8] c"acb->count <= s->num_children\00", align 1
@.str.33 = private unnamed_addr constant [38 x i8] c"acb->success_count <= s->num_children\00", align 1
@__PRETTY_FUNCTION__.write_quorum_entry = private unnamed_addr constant [32 x i8] c"void write_quorum_entry(void *)\00", align 1

; Function Attrs: nounwind sspstrong uwtable
define internal void @quorum_report_bad(i32 noundef %type, i64 noundef %offset, i64 noundef %bytes, ptr noundef %node_name, i32 noundef %ret) #0 {
entry:
  %type.addr = alloca i32, align 4
  %offset.addr = alloca i64, align 8
  %bytes.addr = alloca i64, align 8
  %node_name.addr = alloca ptr, align 8
  %ret.addr = alloca i32, align 4
  %msg = alloca ptr, align 8
  %start_sector = alloca i64, align 8
  %end_sector = alloca i64, align 8
  store i32 %type, ptr %type.addr, align 4
  store i64 %offset, ptr %offset.addr, align 8
  store i64 %bytes, ptr %bytes.addr, align 8
  store ptr %node_name, ptr %node_name.addr, align 8
  store i32 %ret, ptr %ret.addr, align 4
  store ptr null, ptr %msg, align 8
  %0 = load i64, ptr %offset.addr, align 8
  %div = udiv i64 %0, 512
  store i64 %div, ptr %start_sector, align 8
  %1 = load i64, ptr %offset.addr, align 8
  %2 = load i64, ptr %bytes.addr, align 8
  %add = add i64 %1, %2
  %add1 = add i64 %add, 512
  %sub = sub i64 %add1, 1
  %div2 = udiv i64 %sub, 512
  store i64 %div2, ptr %end_sector, align 8
  %3 = load i32, ptr %ret.addr, align 4
  %cmp = icmp slt i32 %3, 0
  br i1 %cmp, label %if.then, label %if.end

if.then:                                          ; preds = %entry
  %4 = load i32, ptr %ret.addr, align 4
  %sub3 = sub i32 0, %4
  %call = call ptr @strerror(i32 noundef %sub3) #8
  store ptr %call, ptr %msg, align 8
  br label %if.end

if.end:                                           ; preds = %if.then, %entry
  %5 = load i32, ptr %type.addr, align 4
  %6 = load ptr, ptr %msg, align 8
  %7 = load ptr, ptr %node_name.addr, align 8
  %8 = load i64, ptr %start_sector, align 8
  %9 = load i64, ptr %end_sector, align 8
  %10 = load i64, ptr %start_sector, align 8
  %sub4 = sub i64 %9, %10
  call void @qapi_event_send_quorum_report_bad(i32 noundef %5, ptr noundef %6, ptr noundef %7, i64 noundef %8, i64 noundef %sub4)
  ret void
}

; Function Attrs: nounwind sspstrong uwtable
define internal void @quorum_report_bad_acb(ptr noundef %sacb, i32 noundef %ret) #0 {
entry:
  %sacb.addr = alloca ptr, align 8
  %ret.addr = alloca i32, align 4
  %acb = alloca ptr, align 8
  %type = alloca i32, align 4
  store ptr %sacb, ptr %sacb.addr, align 8
  store i32 %ret, ptr %ret.addr, align 4
  %0 = load ptr, ptr %sacb.addr, align 8
  %parent = getelementptr inbounds %struct.QuorumChildRequest, ptr %0, i32 0, i32 4
  %1 = load ptr, ptr %parent, align 8
  store ptr %1, ptr %acb, align 8
  %2 = load ptr, ptr %acb, align 8
  %is_read = getelementptr inbounds %struct.QuorumAIOCB, ptr %2, i32 0, i32 11
  %3 = load i8, ptr %is_read, align 8
  %tobool = trunc i8 %3 to i1
  %cond = select i1 %tobool, i32 0, i32 1
  store i32 %cond, ptr %type, align 4
  %4 = load i32, ptr %type, align 4
  %5 = load ptr, ptr %acb, align 8
  %offset = getelementptr inbounds %struct.QuorumAIOCB, ptr %5, i32 0, i32 2
  %6 = load i64, ptr %offset, align 8
  %7 = load ptr, ptr %acb, align 8
  %bytes = getelementptr inbounds %struct.QuorumAIOCB, ptr %7, i32 0, i32 3
  %8 = load i64, ptr %bytes, align 8
  %9 = load ptr, ptr %sacb.addr, align 8
  %bs = getelementptr inbounds %struct.QuorumChildRequest, ptr %9, i32 0, i32 0
  %10 = load ptr, ptr %bs, align 8
  %node_name = getelementptr inbounds %struct.BlockDriverState, ptr %10, i32 0, i32 22
  %arraydecay = getelementptr inbounds [32 x i8], ptr %node_name, i64 0, i64 0
  %11 = load i32, ptr %ret.addr, align 4
  call void @quorum_report_bad(i32 noundef %4, i64 noundef %6, i64 noundef %8, ptr noundef %arraydecay, i32 noundef %11)
  ret void
}

; Function Attrs: nounwind sspstrong uwtable
define internal void @write_quorum_entry(ptr noundef %opaque) #0 {
entry:
  %opaque.addr = alloca ptr, align 8
  %co = alloca ptr, align 8
  %acb = alloca ptr, align 8
  %s = alloca ptr, align 8
  %i = alloca i32, align 4
  %sacb = alloca ptr, align 8
  store ptr %opaque, ptr %opaque.addr, align 8
  %0 = load ptr, ptr %opaque.addr, align 8
  store ptr %0, ptr %co, align 8
  %1 = load ptr, ptr %co, align 8
  %acb1 = getelementptr inbounds %struct.QuorumCo, ptr %1, i32 0, i32 0
  %2 = load ptr, ptr %acb1, align 8
  store ptr %2, ptr %acb, align 8
  %3 = load ptr, ptr %acb, align 8
  %bs = getelementptr inbounds %struct.QuorumAIOCB, ptr %3, i32 0, i32 0
  %4 = load ptr, ptr %bs, align 8
  %opaque2 = getelementptr inbounds %struct.BlockDriverState, ptr %4, i32 0, i32 7
  %5 = load ptr, ptr %opaque2, align 8
  store ptr %5, ptr %s, align 8
  %6 = load ptr, ptr %co, align 8
  %idx = getelementptr inbounds %struct.QuorumCo, ptr %6, i32 0, i32 1
  %7 = load i32, ptr %idx, align 8
  store i32 %7, ptr %i, align 4
  %8 = load ptr, ptr %acb, align 8
  %qcrs = getelementptr inbounds %struct.QuorumAIOCB, ptr %8, i32 0, i32 6
  %9 = load ptr, ptr %qcrs, align 8
  %10 = load i32, ptr %i, align 4
  %idxprom = sext i32 %10 to i64
  %arrayidx = getelementptr %struct.QuorumChildRequest, ptr %9, i64 %idxprom
  store ptr %arrayidx, ptr %sacb, align 8
  %11 = load ptr, ptr %s, align 8
  %children = getelementptr inbounds %struct.BDRVQuorumState, ptr %11, i32 0, i32 0
  %12 = load ptr, ptr %children, align 8
  %13 = load i32, ptr %i, align 4
  %idxprom3 = sext i32 %13 to i64
  %arrayidx4 = getelementptr ptr, ptr %12, i64 %idxprom3
  %14 = load ptr, ptr %arrayidx4, align 8
  %bs5 = getelementptr inbounds %struct.BdrvChild, ptr %14, i32 0, i32 0
  %15 = load ptr, ptr %bs5, align 8
  %16 = load ptr, ptr %sacb, align 8
  %bs6 = getelementptr inbounds %struct.QuorumChildRequest, ptr %16, i32 0, i32 0
  store ptr %15, ptr %bs6, align 8
  %17 = load ptr, ptr %acb, align 8
  %flags = getelementptr inbounds %struct.QuorumAIOCB, ptr %17, i32 0, i32 4
  %18 = load i32, ptr %flags, align 8
  %and = and i32 %18, 2
  %tobool = icmp ne i32 %and, 0
  br i1 %tobool, label %if.then, label %if.else

if.then:                                          ; preds = %entry
  %19 = load ptr, ptr %s, align 8
  %children7 = getelementptr inbounds %struct.BDRVQuorumState, ptr %19, i32 0, i32 0
  %20 = load ptr, ptr %children7, align 8
  %21 = load i32, ptr %i, align 4
  %idxprom8 = sext i32 %21 to i64
  %arrayidx9 = getelementptr ptr, ptr %20, i64 %idxprom8
  %22 = load ptr, ptr %arrayidx9, align 8
  %23 = load ptr, ptr %acb, align 8
  %offset = getelementptr inbounds %struct.QuorumAIOCB, ptr %23, i32 0, i32 2
  %24 = load i64, ptr %offset, align 8
  %25 = load ptr, ptr %acb, align 8
  %bytes = getelementptr inbounds %struct.QuorumAIOCB, ptr %25, i32 0, i32 3
  %26 = load i64, ptr %bytes, align 8
  %27 = load ptr, ptr %acb, align 8
  %flags10 = getelementptr inbounds %struct.QuorumAIOCB, ptr %27, i32 0, i32 4
  %28 = load i32, ptr %flags10, align 8
  %call = call i32 @bdrv_co_pwrite_zeroes(ptr noundef %22, i64 noundef %24, i64 noundef %26, i32 noundef %28)
  %29 = load ptr, ptr %sacb, align 8
  %ret = getelementptr inbounds %struct.QuorumChildRequest, ptr %29, i32 0, i32 3
  store i32 %call, ptr %ret, align 8
  br label %if.end

if.else:                                          ; preds = %entry
  %30 = load ptr, ptr %s, align 8
  %children11 = getelementptr inbounds %struct.BDRVQuorumState, ptr %30, i32 0, i32 0
  %31 = load ptr, ptr %children11, align 8
  %32 = load i32, ptr %i, align 4
  %idxprom12 = sext i32 %32 to i64
  %arrayidx13 = getelementptr ptr, ptr %31, i64 %idxprom12
  %33 = load ptr, ptr %arrayidx13, align 8
  %34 = load ptr, ptr %acb, align 8
  %offset14 = getelementptr inbounds %struct.QuorumAIOCB, ptr %34, i32 0, i32 2
  %35 = load i64, ptr %offset14, align 8
  %36 = load ptr, ptr %acb, align 8
  %bytes15 = getelementptr inbounds %struct.QuorumAIOCB, ptr %36, i32 0, i32 3
  %37 = load i64, ptr %bytes15, align 8
  %38 = load ptr, ptr %acb, align 8
  %qiov = getelementptr inbounds %struct.QuorumAIOCB, ptr %38, i32 0, i32 5
  %39 = load ptr, ptr %qiov, align 8
  %40 = load ptr, ptr %acb, align 8
  %flags16 = getelementptr inbounds %struct.QuorumAIOCB, ptr %40, i32 0, i32 4
  %41 = load i32, ptr %flags16, align 8
  %call17 = call i32 @bdrv_co_pwritev(ptr noundef %33, i64 noundef %35, i64 noundef %37, ptr noundef %39, i32 noundef %41)
  %42 = load ptr, ptr %sacb, align 8
  %ret18 = getelementptr inbounds %struct.QuorumChildRequest, ptr %42, i32 0, i32 3
  store i32 %call17, ptr %ret18, align 8
  br label %if.end

if.end:                                           ; preds = %if.else, %if.then
  %43 = load ptr, ptr %sacb, align 8
  %ret19 = getelementptr inbounds %struct.QuorumChildRequest, ptr %43, i32 0, i32 3
  %44 = load i32, ptr %ret19, align 8
  %cmp = icmp eq i32 %44, 0
  br i1 %cmp, label %if.then20, label %if.else21

if.then20:                                        ; preds = %if.end
  %45 = load ptr, ptr %acb, align 8
  %success_count = getelementptr inbounds %struct.QuorumAIOCB, ptr %45, i32 0, i32 8
  %46 = load i32, ptr %success_count, align 4
  %inc = add i32 %46, 1
  store i32 %inc, ptr %success_count, align 4
  br label %if.end23

if.else21:                                        ; preds = %if.end
  %47 = load ptr, ptr %sacb, align 8
  %48 = load ptr, ptr %sacb, align 8
  %ret22 = getelementptr inbounds %struct.QuorumChildRequest, ptr %48, i32 0, i32 3
  %49 = load i32, ptr %ret22, align 8
  call void @quorum_report_bad_acb(ptr noundef %47, i32 noundef %49)
  br label %if.end23

if.end23:                                         ; preds = %if.else21, %if.then20
  %50 = load ptr, ptr %acb, align 8
  %count = getelementptr inbounds %struct.QuorumAIOCB, ptr %50, i32 0, i32 7
  %51 = load i32, ptr %count, align 8
  %inc24 = add i32 %51, 1
  store i32 %inc24, ptr %count, align 8
  %52 = load ptr, ptr %acb, align 8
  %count25 = getelementptr inbounds %struct.QuorumAIOCB, ptr %52, i32 0, i32 7
  %53 = load i32, ptr %count25, align 8
  %54 = load ptr, ptr %s, align 8
  %num_children = getelementptr inbounds %struct.BDRVQuorumState, ptr %54, i32 0, i32 1
  %55 = load i32, ptr %num_children, align 8
  %cmp26 = icmp sle i32 %53, %55
  br i1 %cmp26, label %if.then27, label %if.else28

if.then27:                                        ; preds = %if.end23
  br label %if.end29

if.else28:                                        ; preds = %if.end23
  call void @__assert_fail(ptr noundef @.str.32, ptr noundef @.str.6, i32 noundef 719, ptr noundef @__PRETTY_FUNCTION__.write_quorum_entry) #9
  unreachable

if.end29:                                         ; preds = %if.then27
  %56 = load ptr, ptr %acb, align 8
  %success_count30 = getelementptr inbounds %struct.QuorumAIOCB, ptr %56, i32 0, i32 8
  %57 = load i32, ptr %success_count30, align 4
  %58 = load ptr, ptr %s, align 8
  %num_children31 = getelementptr inbounds %struct.BDRVQuorumState, ptr %58, i32 0, i32 1
  %59 = load i32, ptr %num_children31, align 8
  %cmp32 = icmp sle i32 %57, %59
  br i1 %cmp32, label %if.then33, label %if.else34

if.then33:                                        ; preds = %if.end29
  br label %if.end35

if.else34:                                        ; preds = %if.end29
  call void @__assert_fail(ptr noundef @.str.33, ptr noundef @.str.6, i32 noundef 720, ptr noundef @__PRETTY_FUNCTION__.write_quorum_entry) #9
  unreachable

if.end35:                                         ; preds = %if.then33
  %60 = load ptr, ptr %acb, align 8
  %count36 = getelementptr inbounds %struct.QuorumAIOCB, ptr %60, i32 0, i32 7
  %61 = load i32, ptr %count36, align 8
  %62 = load ptr, ptr %s, align 8
  %num_children37 = getelementptr inbounds %struct.BDRVQuorumState, ptr %62, i32 0, i32 1
  %63 = load i32, ptr %num_children37, align 8
  %cmp38 = icmp eq i32 %61, %63
  br i1 %cmp38, label %if.then39, label %if.end41

if.then39:                                        ; preds = %if.end35
  %64 = load ptr, ptr %acb, align 8
  %co40 = getelementptr inbounds %struct.QuorumAIOCB, ptr %64, i32 0, i32 1
  %65 = load ptr, ptr %co40, align 8
  call void @qemu_coroutine_enter_if_inactive(ptr noundef %65)
  br label %if.end41

if.end41:                                         ; preds = %if.then39, %if.end35
  ret void
}