; Function Attrs: nounwind sspstrong uwtable
define internal void @write_quorum_entry(ptr noundef readonly captures(none) %opaque) #0 {
entry:
  %0 = load ptr, ptr %opaque, align 8
  %1 = load ptr, ptr %0, align 8
  %opaque2 = getelementptr inbounds nuw i8, ptr %1, i64 24
  %2 = load ptr, ptr %opaque2, align 8
  %idx = getelementptr inbounds nuw i8, ptr %opaque, i64 8
  %3 = load i32, ptr %idx, align 8
  %qcrs = getelementptr inbounds nuw i8, ptr %0, i64 48
  %4 = load ptr, ptr %qcrs, align 8
  %idxprom = sext i32 %3 to i64
  %arrayidx = getelementptr %struct.QuorumChildRequest, ptr %4, i64 %idxprom
  %5 = load ptr, ptr %2, align 8
  %arrayidx4 = getelementptr ptr, ptr %5, i64 %idxprom
  %6 = load ptr, ptr %arrayidx4, align 8
  %7 = load ptr, ptr %6, align 8
  store ptr %7, ptr %arrayidx, align 8
  %flags = getelementptr inbounds nuw i8, ptr %0, i64 32
  %8 = load i32, ptr %flags, align 8
  %and = and i32 %8, 2
  %tobool.not = icmp eq i32 %and, 0
  %9 = load ptr, ptr %2, align 8
  %arrayidx13 = getelementptr ptr, ptr %9, i64 %idxprom
  %10 = load ptr, ptr %arrayidx13, align 8
  %offset14 = getelementptr inbounds nuw i8, ptr %0, i64 16
  %11 = load i64, ptr %offset14, align 8
  %bytes15 = getelementptr inbounds nuw i8, ptr %0, i64 24
  %12 = load i64, ptr %bytes15, align 8
  br i1 %tobool.not, label %if.else, label %if.then

if.then:                                          ; preds = %entry
  %call = tail call i32 @bdrv_co_pwrite_zeroes(ptr noundef %10, i64 noundef %11, i64 noundef %12, i32 noundef %8) #17
  br label %if.end

if.else:                                          ; preds = %entry
  %qiov = getelementptr inbounds nuw i8, ptr %0, i64 40
  %13 = load ptr, ptr %qiov, align 8
  %call17 = tail call i32 @bdrv_co_pwritev(ptr noundef %10, i64 noundef %11, i64 noundef %12, ptr noundef %13, i32 noundef %8) #17
  br label %if.end

if.end:                                           ; preds = %if.else, %if.then
  %call.sink = phi i32 [ %call17, %if.else ], [ %call, %if.then ]
  %14 = getelementptr inbounds nuw i8, ptr %arrayidx, i64 56
  store i32 %call.sink, ptr %14, align 8
  %cmp = icmp eq i32 %call.sink, 0
  br i1 %cmp, label %if.then20, label %if.else21

if.then20:                                        ; preds = %if.end
  %success_count = getelementptr inbounds nuw i8, ptr %0, i64 60
  %15 = load i32, ptr %success_count, align 4
  %inc = add i32 %15, 1
  store i32 %inc, ptr %success_count, align 4
  br label %if.end23

if.else21:                                        ; preds = %if.end
  %arrayidx.val = load ptr, ptr %arrayidx, align 8
  %16 = getelementptr i8, ptr %arrayidx, i64 64
  %arrayidx.val31 = load ptr, ptr %16, align 8
  %is_read.i = getelementptr inbounds nuw i8, ptr %arrayidx.val31, i64 88
  %17 = load i8, ptr %is_read.i, align 8
  %offset.i = getelementptr inbounds nuw i8, ptr %arrayidx.val31, i64 16
  %18 = load i64, ptr %offset.i, align 8
  %bytes.i = getelementptr inbounds nuw i8, ptr %arrayidx.val31, i64 24
  %19 = load i64, ptr %bytes.i, align 8
  %cmp.i.i = icmp slt i32 %call.sink, 0
  br i1 %cmp.i.i, label %if.then.i.i, label %quorum_report_bad_acb.exit

if.then.i.i:                                      ; preds = %if.else21
  %sub3.i.i = sub i32 0, %call.sink
  %call.i.i = tail call ptr @strerror(i32 noundef %sub3.i.i) #17
  br label %quorum_report_bad_acb.exit

quorum_report_bad_acb.exit:                       ; preds = %if.else21, %if.then.i.i
  %msg.0.i.i = phi ptr [ %call.i.i, %if.then.i.i ], [ null, %if.else21 ]
  %node_name.i = getelementptr inbounds nuw i8, ptr %arrayidx.val, i64 16600
  %20 = and i8 %17, 1
  %21 = xor i8 %20, 1
  %cond.i = zext nneg i8 %21 to i32
  %add.i.i = add i64 %18, 511
  %sub.i.i = add i64 %add.i.i, %19
  %div25.i.i = lshr i64 %sub.i.i, 9
  %div4.i.i = lshr i64 %18, 9
  %sub4.i.i = sub nsw i64 %div25.i.i, %div4.i.i
  tail call void @qapi_event_send_quorum_report_bad(i32 noundef range(i32 0, 3) %cond.i, ptr noundef %msg.0.i.i, ptr noundef nonnull %node_name.i, i64 noundef %div4.i.i, i64 noundef %sub4.i.i) #17
  br label %if.end23

if.end23:                                         ; preds = %quorum_report_bad_acb.exit, %if.then20
  %count = getelementptr inbounds nuw i8, ptr %0, i64 56
  %22 = load i32, ptr %count, align 8
  %inc24 = add i32 %22, 1
  store i32 %inc24, ptr %count, align 8
  %num_children = getelementptr inbounds nuw i8, ptr %2, i64 8
  %23 = load i32, ptr %num_children, align 8
  %cmp26.not = icmp sgt i32 %inc24, %23
  br i1 %cmp26.not, label %if.else28, label %if.end29

if.else28:                                        ; preds = %if.end23
  tail call void @__assert_fail(ptr noundef nonnull @.str.32, ptr noundef nonnull @.str.6, i32 noundef 719, ptr noundef nonnull @__PRETTY_FUNCTION__.write_quorum_entry) #19
  unreachable

if.end29:                                         ; preds = %if.end23
  %success_count30 = getelementptr inbounds nuw i8, ptr %0, i64 60
  %24 = load i32, ptr %success_count30, align 4
  %cmp32.not = icmp sgt i32 %24, %23
  br i1 %cmp32.not, label %if.else34, label %if.end35

if.else34:                                        ; preds = %if.end29
  tail call void @__assert_fail(ptr noundef nonnull @.str.33, ptr noundef nonnull @.str.6, i32 noundef 720, ptr noundef nonnull @__PRETTY_FUNCTION__.write_quorum_entry) #19
  unreachable

if.end35:                                         ; preds = %if.end29
  %cmp38 = icmp eq i32 %inc24, %23
  br i1 %cmp38, label %if.then39, label %if.end41

if.then39:                                        ; preds = %if.end35
  %co40 = getelementptr inbounds nuw i8, ptr %0, i64 8
  %25 = load ptr, ptr %co40, align 8
  tail call void @qemu_coroutine_enter_if_inactive(ptr noundef %25) #17
  br label %if.end41

if.end41:                                         ; preds = %if.then39, %if.end35
  ret void
}